target datalayout = "e-m:e-p270:32:32-p271:32:32-p272:64:64-i64:64-i128:128-f80:128-n8:16:32:64-S128"
target triple = "x86_64-pc-linux-gnu"

%"class.LIEF::Binary" = type { %"class.LIEF::Object", i32, %"class.std::unique_ptr", %"class.std::unordered_map", i64 }
%"class.LIEF::Object" = type { ptr }
%"class.std::unique_ptr" = type { %"struct.std::__uniq_ptr_data" }
%"struct.std::__uniq_ptr_data" = type { %"class.std::__uniq_ptr_impl" }
%"class.std::__uniq_ptr_impl" = type { %"class.std::tuple" }
%"class.std::tuple" = type { %"struct.std::_Tuple_impl" }
%"struct.std::_Tuple_impl" = type { %"struct.std::_Head_base.1" }
%"struct.std::_Head_base.1" = type { ptr }
%"class.std::unordered_map" = type { %"class.std::_Hashtable" }
%"class.std::_Hashtable" = type { ptr, i64, %"struct.std::__detail::_Hash_node_base", i64, %"struct.std::__detail::_Prime_rehash_policy", ptr }
%"struct.std::__detail::_Hash_node_base" = type { ptr }
%"struct.std::__detail::_Prime_rehash_policy" = type { float, i64 }
%"class.std::vector.54" = type { %"struct.std::_Vector_base.55" }
%"struct.std::_Vector_base.55" = type { %"struct.std::_Vector_base<unsigned char, std::allocator<unsigned char>>::_Vector_impl" }
%"struct.std::_Vector_base<unsigned char, std::allocator<unsigned char>>::_Vector_impl" = type { %"struct.std::_Vector_base<unsigned char, std::allocator<unsigned char>>::_Vector_impl_data" }
%"struct.std::_Vector_base<unsigned char, std::allocator<unsigned char>>::_Vector_impl_data" = type { ptr, ptr, ptr }
%"class.LIEF::MachO::Binary" = type { %"class.LIEF::Binary", i8, %"class.LIEF::MachO::Header", %"class.std::vector.107", %"class.std::vector.112", %"class.std::vector.117", %"class.std::vector.122", %"class.std::vector.127", %"class.std::vector.132", %"class.std::set", i64, %"class.std::map", i64, i64, i64, %"class.std::__cxx11::basic_string", %"class.std::vector.54", %"class.std::vector.148" }
%"class.LIEF::MachO::Header" = type { %"class.LIEF::Object", i32, i32, i32, i32, i32, i32, i32, i32 }
%"class.std::vector.107" = type { %"struct.std::_Vector_base.108" }
%"struct.std::_Vector_base.108" = type { %"struct.std::_Vector_base<std::unique_ptr<LIEF::MachO::LoadCommand>, std::allocator<std::unique_ptr<LIEF::MachO::LoadCommand>>>::_Vector_impl" }
%"struct.std::_Vector_base<std::unique_ptr<LIEF::MachO::LoadCommand>, std::allocator<std::unique_ptr<LIEF::MachO::LoadCommand>>>::_Vector_impl" = type { %"struct.std::_Vector_base<std::unique_ptr<LIEF::MachO::LoadCommand>, std::allocator<std::unique_ptr<LIEF::MachO::LoadCommand>>>::_Vector_impl_data" }
%"struct.std::_Vector_base<std::unique_ptr<LIEF::MachO::LoadCommand>, std::allocator<std::unique_ptr<LIEF::MachO::LoadCommand>>>::_Vector_impl_data" = type { ptr, ptr, ptr }
%"class.std::vector.112" = type { %"struct.std::_Vector_base.113" }
%"struct.std::_Vector_base.113" = type { %"struct.std::_Vector_base<std::unique_ptr<LIEF::MachO::Symbol>, std::allocator<std::unique_ptr<LIEF::MachO::Symbol>>>::_Vector_impl" }
%"struct.std::_Vector_base<std::unique_ptr<LIEF::MachO::Symbol>, std::allocator<std::unique_ptr<LIEF::MachO::Symbol>>>::_Vector_impl" = type { %"struct.std::_Vector_base<std::unique_ptr<LIEF::MachO::Symbol>, std::allocator<std::unique_ptr<LIEF::MachO::Symbol>>>::_Vector_impl_data" }
%"struct.std::_Vector_base<std::unique_ptr<LIEF::MachO::Symbol>, std::allocator<std::unique_ptr<LIEF::MachO::Symbol>>>::_Vector_impl_data" = type { ptr, ptr, ptr }
%"class.std::vector.117" = type { %"struct.std::_Vector_base.118" }
%"struct.std::_Vector_base.118" = type { %"struct.std::_Vector_base<LIEF::MachO::DylibCommand *, std::allocator<LIEF::MachO::DylibCommand *>>::_Vector_impl" }
%"struct.std::_Vector_base<LIEF::MachO::DylibCommand *, std::allocator<LIEF::MachO::DylibCommand *>>::_Vector_impl" = type { %"struct.std::_Vector_base<LIEF::MachO::DylibCommand *, std::allocator<LIEF::MachO::DylibCommand *>>::_Vector_impl_data" }
%"struct.std::_Vector_base<LIEF::MachO::DylibCommand *, std::allocator<LIEF::MachO::DylibCommand *>>::_Vector_impl_data" = type { ptr, ptr, ptr }
%"class.std::vector.122" = type { %"struct.std::_Vector_base.123" }
%"struct.std::_Vector_base.123" = type { %"struct.std::_Vector_base<LIEF::MachO::Section *, std::allocator<LIEF::MachO::Section *>>::_Vector_impl" }
%"struct.std::_Vector_base<LIEF::MachO::Section *, std::allocator<LIEF::MachO::Section *>>::_Vector_impl" = type { %"struct.std::_Vector_base<LIEF::MachO::Section *, std::allocator<LIEF::MachO::Section *>>::_Vector_impl_data" }
%"struct.std::_Vector_base<LIEF::MachO::Section *, std::allocator<LIEF::MachO::Section *>>::_Vector_impl_data" = type { ptr, ptr, ptr }
%"class.std::vector.127" = type { %"struct.std::_Vector_base.128" }
%"struct.std::_Vector_base.128" = type { %"struct.std::_Vector_base<LIEF::MachO::SegmentCommand *, std::allocator<LIEF::MachO::SegmentCommand *>>::_Vector_impl" }
%"struct.std::_Vector_base<LIEF::MachO::SegmentCommand *, std::allocator<LIEF::MachO::SegmentCommand *>>::_Vector_impl" = type { %"struct.std::_Vector_base<LIEF::MachO::SegmentCommand *, std::allocator<LIEF::MachO::SegmentCommand *>>::_Vector_impl_data" }
%"struct.std::_Vector_base<LIEF::MachO::SegmentCommand *, std::allocator<LIEF::MachO::SegmentCommand *>>::_Vector_impl_data" = type { ptr, ptr, ptr }
%"class.std::vector.132" = type { %"struct.std::_Vector_base.133" }
%"struct.std::_Vector_base.133" = type { %"struct.std::_Vector_base<std::unique_ptr<LIEF::MachO::Binary>, std::allocator<std::unique_ptr<LIEF::MachO::Binary>>>::_Vector_impl" }
%"struct.std::_Vector_base<std::unique_ptr<LIEF::MachO::Binary>, std::allocator<std::unique_ptr<LIEF::MachO::Binary>>>::_Vector_impl" = type { %"struct.std::_Vector_base<std::unique_ptr<LIEF::MachO::Binary>, std::allocator<std::unique_ptr<LIEF::MachO::Binary>>>::_Vector_impl_data" }
%"struct.std::_Vector_base<std::unique_ptr<LIEF::MachO::Binary>, std::allocator<std::unique_ptr<LIEF::MachO::Binary>>>::_Vector_impl_data" = type { ptr, ptr, ptr }
%"class.std::set" = type { %"class.std::_Rb_tree" }
%"class.std::_Rb_tree" = type { %"struct.std::_Rb_tree<LIEF::MachO::Relocation *, LIEF::MachO::Relocation *, std::_Identity<LIEF::MachO::Relocation *>, LIEF::MachO::Binary::KeyCmp>::_Rb_tree_impl" }
%"struct.std::_Rb_tree<LIEF::MachO::Relocation *, LIEF::MachO::Relocation *, std::_Identity<LIEF::MachO::Relocation *>, LIEF::MachO::Binary::KeyCmp>::_Rb_tree_impl" = type { [8 x i8], %"struct.std::_Rb_tree_header" }
%"struct.std::_Rb_tree_header" = type { %"struct.std::_Rb_tree_node_base", i64 }
%"struct.std::_Rb_tree_node_base" = type { i32, ptr, ptr, ptr }
%"class.std::map" = type { %"class.std::_Rb_tree.140" }
%"class.std::_Rb_tree.140" = type { %"struct.std::_Rb_tree<unsigned long, std::pair<const unsigned long, LIEF::MachO::SegmentCommand *>, std::_Select1st<std::pair<const unsigned long, LIEF::MachO::SegmentCommand *>>, std::less<unsigned long>>::_Rb_tree_impl" }
%"struct.std::_Rb_tree<unsigned long, std::pair<const unsigned long, LIEF::MachO::SegmentCommand *>, std::_Select1st<std::pair<const unsigned long, LIEF::MachO::SegmentCommand *>>, std::less<unsigned long>>::_Rb_tree_impl" = type { [8 x i8], %"struct.std::_Rb_tree_header" }
%"class.std::__cxx11::basic_string" = type { %"struct.std::__cxx11::basic_string<char>::_Alloc_hider", i64, %union.anon }
%"struct.std::__cxx11::basic_string<char>::_Alloc_hider" = type { ptr }
%union.anon = type { i64, [8 x i8] }
%"class.std::vector.148" = type { %"struct.std::_Vector_base.149" }
%"struct.std::_Vector_base.149" = type { %"struct.std::_Vector_base<std::unique_ptr<LIEF::MachO::IndirectBindingInfo>, std::allocator<std::unique_ptr<LIEF::MachO::IndirectBindingInfo>>>::_Vector_impl" }
%"struct.std::_Vector_base<std::unique_ptr<LIEF::MachO::IndirectBindingInfo>, std::allocator<std::unique_ptr<LIEF::MachO::IndirectBindingInfo>>>::_Vector_impl" = type { %"struct.std::_Vector_base<std::unique_ptr<LIEF::MachO::IndirectBindingInfo>, std::allocator<std::unique_ptr<LIEF::MachO::IndirectBindingInfo>>>::_Vector_impl_data" }
%"struct.std::_Vector_base<std::unique_ptr<LIEF::MachO::IndirectBindingInfo>, std::allocator<std::unique_ptr<LIEF::MachO::IndirectBindingInfo>>>::_Vector_impl_data" = type { ptr, ptr, ptr }

; Function Attrs: mustprogress nounwind uwtable
define linkonce_odr hidden noundef i64 @_ZN4LIEFli3_KBEy(i64 noundef %0) #0 comdat {
  %2 = alloca i64, align 8
  store i64 %0, ptr %2, align 8, !tbaa !8
  %3 = load i64, ptr %2, align 8, !tbaa !8
  %4 = mul i64 1024, %3
  ret i64 %4
}

; Function Attrs: mustprogress nounwind uwtable
define linkonce_odr hidden noundef i32 @_ZNK4LIEF5MachO6Header8cpu_typeEv(ptr noundef nonnull align 8 dereferenceable(40) %0) #0 comdat align 2 {
  %2 = alloca ptr, align 8
  store ptr %0, ptr %2, align 8, !tbaa !23
  %3 = load ptr, ptr %2, align 8
  %4 = getelementptr inbounds nuw %"class.LIEF::MachO::Header", ptr %3, i32 0, i32 2
  %5 = load i32, ptr %4, align 4, !tbaa !25
  ret i32 %5
}

; Function Attrs: mustprogress nounwind uwtable
define linkonce_odr hidden noundef nonnull align 8 dereferenceable(40) ptr @_ZNK4LIEF5MachO6Binary6headerEv(ptr noundef nonnull align 8 dereferenceable(488) %0) #0 comdat align 2 {
  %2 = alloca ptr, align 8
  store ptr %0, ptr %2, align 8, !tbaa !21
  %3 = load ptr, ptr %2, align 8
  %4 = getelementptr inbounds nuw %"class.LIEF::MachO::Binary", ptr %3, i32 0, i32 2
  ret ptr %4
}

; Function Attrs: mustprogress nounwind uwtable
define hidden noundef i32 @_ZN4LIEF12get_pagesizeERKNS_5MachO6BinaryE(ptr noundef nonnull align 8 dereferenceable(488) %0) #0 {
  %2 = alloca i32, align 4
  %3 = alloca ptr, align 8
  store ptr %0, ptr %3, align 8, !tbaa !21
  %4 = load ptr, ptr %3, align 8, !tbaa !21
  %5 = call noundef nonnull align 8 dereferenceable(40) ptr @_ZNK4LIEF5MachO6Binary6headerEv(ptr noundef nonnull align 8 dereferenceable(488) %4)
  %6 = call noundef i32 @_ZNK4LIEF5MachO6Header8cpu_typeEv(ptr noundef nonnull align 8 dereferenceable(40) %5)
  switch i32 %6, label %13 [
    i32 7, label %7
    i32 16777223, label %7
    i32 12, label %10
    i32 16777228, label %10
  ]

7:                                                ; preds = %1, %1
  %8 = call noundef i64 @_ZN4LIEFli3_KBEy(i64 noundef 4)
  %9 = trunc i64 %8 to i32
  store i32 %9, ptr %2, align 4
  br label %14

10:                                               ; preds = %1, %1
  %11 = call noundef i64 @_ZN4LIEFli3_KBEy(i64 noundef 16)
  %12 = trunc i64 %11 to i32
  store i32 %12, ptr %2, align 4
  br label %14

13:                                               ; preds = %1
  store i32 4096, ptr %2, align 4
  br label %14

14:                                               ; preds = %13, %10, %7
  %15 = load i32, ptr %2, align 4
  ret i32 %15
}