; Function Attrs: mustprogress nofree norecurse nosync nounwind willreturn memory(argmem: read) uwtable
define hidden noundef range(i32 4096, 16385) i32 @_ZN4LIEF12get_pagesizeERKNS_5MachO6BinaryE(ptr noundef nonnull readonly align 8 captures(none) dereferenceable(488) %0) local_unnamed_addr #1 {
  %2 = getelementptr inbounds nuw i8, ptr %0, i64 108
  %3 = load i32, ptr %2, align 4, !tbaa !12
  %4 = add i32 %3, -12
  %switch.and = and i32 %4, -16777217
  %switch.selectcmp = icmp eq i32 %switch.and, 0
  %5 = select i1 %switch.selectcmp, i32 16384, i32 4096
  ret i32 %5
}